(lp0
ccopy_reg
_reconstructor
p1
(cgh600
Waypoint
p2
c__builtin__
object
p3
Ntp4
Rp5
(dp6
S'latitude'
p7
cgh600
Coordinate
p8
(S'37.644684587165884'
p9
tp10
Rp11
sS'altitude'
p12
S'14'
p13
sS'type'
p14
S'0'
p15
sS'longitude'
p16
g8
(S'-122.09243774414062'
p17
tp18
Rp19
sS'title'
p20
S'EditMe'
p21
sba.